target datalayout = "e-m:e-p270:32:32-p271:32:32-p272:64:64-i64:64-i128:128-f80:128-n8:16:32:64-S128"
target triple = "x86_64-pc-linux-gnu"

%struct.pointf_s = type { double, double }
%struct.Agobj_s = type { %struct.Agtag_s, ptr }
%struct.Agtag_s = type { i32, i64 }
%struct.Agrec_s = type { ptr, ptr }
%struct.Agedgeinfo_t = type { %struct.Agrec_s, ptr, %struct.port, %struct.port, ptr, ptr, ptr, ptr, i8, i8, i8, i8, i8, ptr, ptr, double, double, %struct.Ppoly_t, i8, i8, i16, i32, i32, i32, i16, i32, ptr }
%struct.port = type { %struct.pointf_s, double, ptr, i8, i8, i8, i8, i8, i8, ptr }
%struct.Ppoly_t = type { ptr, i64 }
%struct.Agedge_s = type { %struct.Agobj_s, %struct.dtlink_s_, %struct.dtlink_s_, ptr }
%struct.dtlink_s_ = type { ptr, %union.anon }
%union.anon = type { ptr }
%struct.textlabel_t = type { ptr, ptr, ptr, i32, double, %struct.pointf_s, %struct.pointf_s, %struct.pointf_s, %union.anon.1, i8, i8, i8 }
%union.anon.1 = type { %struct.anon.2 }
%struct.anon.2 = type { ptr, i64 }

@E_labelangle = external global ptr, align 8
@E_labeldistance = external global ptr, align 8

; Function Attrs: nounwind uwtable
define void @makePortLabels(ptr noundef %0) #0 {
  %2 = alloca ptr, align 8
  store ptr %0, ptr %2, align 8, !tbaa !61
  %3 = load ptr, ptr @E_labelangle, align 8, !tbaa !187
  %4 = icmp ne ptr %3, null
  br i1 %4, label %9, label %5

5:                                                ; preds = %1
  %6 = load ptr, ptr @E_labeldistance, align 8, !tbaa !187
  %7 = icmp ne ptr %6, null
  br i1 %7, label %9, label %8

8:                                                ; preds = %5
  br label %93

9:                                                ; preds = %5, %1
  %10 = load ptr, ptr %2, align 8, !tbaa !61
  %11 = getelementptr inbounds nuw %struct.Agobj_s, ptr %10, i32 0, i32 1
  %12 = load ptr, ptr %11, align 8, !tbaa !32
  %13 = getelementptr inbounds nuw %struct.Agedgeinfo_t, ptr %12, i32 0, i32 5
  %14 = load ptr, ptr %13, align 8, !tbaa !189
  %15 = icmp ne ptr %14, null
  br i1 %15, label %16, label %51

16:                                               ; preds = %9
  %17 = load ptr, ptr %2, align 8, !tbaa !61
  %18 = getelementptr inbounds nuw %struct.Agobj_s, ptr %17, i32 0, i32 1
  %19 = load ptr, ptr %18, align 8, !tbaa !32
  %20 = getelementptr inbounds nuw %struct.Agedgeinfo_t, ptr %19, i32 0, i32 5
  %21 = load ptr, ptr %20, align 8, !tbaa !189
  %22 = getelementptr inbounds nuw %struct.textlabel_t, ptr %21, i32 0, i32 10
  %23 = load i8, ptr %22, align 1, !tbaa !182, !range !13, !noundef !14
  %24 = trunc i8 %23 to i1
  br i1 %24, label %51, label %25

25:                                               ; preds = %16
  %26 = load ptr, ptr %2, align 8, !tbaa !61
  %27 = call i32 @place_portlabel(ptr noundef %26, i1 noundef zeroext true)
  %28 = icmp ne i32 %27, 0
  br i1 %28, label %29, label %50

29:                                               ; preds = %25
  %30 = load ptr, ptr %2, align 8, !tbaa !61
  %31 = getelementptr inbounds nuw %struct.Agobj_s, ptr %30, i32 0, i32 0
  %32 = load i32, ptr %31, align 8
  %33 = and i32 %32, 3
  %34 = icmp eq i32 %33, 3
  br i1 %34, label %35, label %37

35:                                               ; preds = %29
  %36 = load ptr, ptr %2, align 8, !tbaa !61
  br label %40

37:                                               ; preds = %29
  %38 = load ptr, ptr %2, align 8, !tbaa !61
  %39 = getelementptr inbounds %struct.Agedge_s, ptr %38, i64 1
  br label %40

40:                                               ; preds = %37, %35
  %41 = phi ptr [ %36, %35 ], [ %39, %37 ]
  %42 = getelementptr inbounds nuw %struct.Agedge_s, ptr %41, i32 0, i32 3
  %43 = load ptr, ptr %42, align 8, !tbaa !88
  %44 = call ptr @agraphof(ptr noundef %43)
  %45 = load ptr, ptr %2, align 8, !tbaa !61
  %46 = getelementptr inbounds nuw %struct.Agobj_s, ptr %45, i32 0, i32 1
  %47 = load ptr, ptr %46, align 8, !tbaa !32
  %48 = getelementptr inbounds nuw %struct.Agedgeinfo_t, ptr %47, i32 0, i32 5
  %49 = load ptr, ptr %48, align 8, !tbaa !189
  call void @updateBB(ptr noundef %44, ptr noundef %49)
  br label %50

50:                                               ; preds = %40, %25
  br label %51

51:                                               ; preds = %50, %16, %9
  %52 = load ptr, ptr %2, align 8, !tbaa !61
  %53 = getelementptr inbounds nuw %struct.Agobj_s, ptr %52, i32 0, i32 1
  %54 = load ptr, ptr %53, align 8, !tbaa !32
  %55 = getelementptr inbounds nuw %struct.Agedgeinfo_t, ptr %54, i32 0, i32 6
  %56 = load ptr, ptr %55, align 8, !tbaa !190
  %57 = icmp ne ptr %56, null
  br i1 %57, label %58, label %93

58:                                               ; preds = %51
  %59 = load ptr, ptr %2, align 8, !tbaa !61
  %60 = getelementptr inbounds nuw %struct.Agobj_s, ptr %59, i32 0, i32 1
  %61 = load ptr, ptr %60, align 8, !tbaa !32
  %62 = getelementptr inbounds nuw %struct.Agedgeinfo_t, ptr %61, i32 0, i32 6
  %63 = load ptr, ptr %62, align 8, !tbaa !190
  %64 = getelementptr inbounds nuw %struct.textlabel_t, ptr %63, i32 0, i32 10
  %65 = load i8, ptr %64, align 1, !tbaa !182, !range !13, !noundef !14
  %66 = trunc i8 %65 to i1
  br i1 %66, label %93, label %67

67:                                               ; preds = %58
  %68 = load ptr, ptr %2, align 8, !tbaa !61
  %69 = call i32 @place_portlabel(ptr noundef %68, i1 noundef zeroext false)
  %70 = icmp ne i32 %69, 0
  br i1 %70, label %71, label %92

71:                                               ; preds = %67
  %72 = load ptr, ptr %2, align 8, !tbaa !61
  %73 = getelementptr inbounds nuw %struct.Agobj_s, ptr %72, i32 0, i32 0
  %74 = load i32, ptr %73, align 8
  %75 = and i32 %74, 3
  %76 = icmp eq i32 %75, 3
  br i1 %76, label %77, label %79

77:                                               ; preds = %71
  %78 = load ptr, ptr %2, align 8, !tbaa !61
  br label %82

79:                                               ; preds = %71
  %80 = load ptr, ptr %2, align 8, !tbaa !61
  %81 = getelementptr inbounds %struct.Agedge_s, ptr %80, i64 1
  br label %82

82:                                               ; preds = %79, %77
  %83 = phi ptr [ %78, %77 ], [ %81, %79 ]
  %84 = getelementptr inbounds nuw %struct.Agedge_s, ptr %83, i32 0, i32 3
  %85 = load ptr, ptr %84, align 8, !tbaa !88
  %86 = call ptr @agraphof(ptr noundef %85)
  %87 = load ptr, ptr %2, align 8, !tbaa !61
  %88 = getelementptr inbounds nuw %struct.Agobj_s, ptr %87, i32 0, i32 1
  %89 = load ptr, ptr %88, align 8, !tbaa !32
  %90 = getelementptr inbounds nuw %struct.Agedgeinfo_t, ptr %89, i32 0, i32 6
  %91 = load ptr, ptr %90, align 8, !tbaa !190
  call void @updateBB(ptr noundef %86, ptr noundef %91)
  br label %92

92:                                               ; preds = %82, %67
  br label %93

93:                                               ; preds = %8, %92, %58, %51
  ret void
}