; Function Attrs: nounwind uwtable
define void @makePortLabels(ptr noundef %0) local_unnamed_addr #0 {
  %2 = load ptr, ptr @E_labelangle, align 8, !tbaa !159
  %3 = icmp ne ptr %2, null
  %4 = load ptr, ptr @E_labeldistance, align 8
  %5 = icmp ne ptr %4, null
  %or.cond = select i1 %3, i1 true, i1 %5
  br i1 %or.cond, label %6, label %49

6:                                                ; preds = %1
  %7 = getelementptr inbounds nuw i8, ptr %0, i64 16
  %8 = load ptr, ptr %7, align 8, !tbaa !9
  %9 = getelementptr inbounds nuw i8, ptr %8, i64 128
  %10 = load ptr, ptr %9, align 8, !tbaa !161
  %.not = icmp eq ptr %10, null
  br i1 %.not, label %28, label %11

11:                                               ; preds = %6
  %12 = getelementptr inbounds nuw i8, ptr %10, i64 105
  %13 = load i8, ptr %12, align 1, !tbaa !154, !range !72, !noundef !73
  %14 = trunc nuw i8 %13 to i1
  br i1 %14, label %28, label %15

15:                                               ; preds = %11
  %16 = tail call i32 @place_portlabel(ptr noundef nonnull %0, i1 noundef zeroext true)
  %.not16 = icmp eq i32 %16, 0
  br i1 %.not16, label %28, label %17

17:                                               ; preds = %15
  %18 = load i32, ptr %0, align 8
  %19 = and i32 %18, 3
  %20 = icmp eq i32 %19, 3
  %.idx = select i1 %20, i64 0, i64 64
  %21 = getelementptr inbounds nuw i8, ptr %0, i64 %.idx
  %22 = getelementptr inbounds nuw i8, ptr %21, i64 56
  %23 = load ptr, ptr %22, align 8, !tbaa !65
  %24 = tail call ptr @agraphof(ptr noundef %23) #17
  %25 = load ptr, ptr %7, align 8, !tbaa !9
  %26 = getelementptr inbounds nuw i8, ptr %25, i64 128
  %27 = load ptr, ptr %26, align 8, !tbaa !161
  tail call void @updateBB(ptr noundef %24, ptr noundef %27) #17
  br label %28

28:                                               ; preds = %15, %17, %11, %6
  %29 = load ptr, ptr %7, align 8, !tbaa !9
  %30 = getelementptr inbounds nuw i8, ptr %29, i64 136
  %31 = load ptr, ptr %30, align 8, !tbaa !162
  %.not17 = icmp eq ptr %31, null
  br i1 %.not17, label %49, label %32

32:                                               ; preds = %28
  %33 = getelementptr inbounds nuw i8, ptr %31, i64 105
  %34 = load i8, ptr %33, align 1, !tbaa !154, !range !72, !noundef !73
  %35 = trunc nuw i8 %34 to i1
  br i1 %35, label %49, label %36

36:                                               ; preds = %32
  %37 = tail call i32 @place_portlabel(ptr noundef nonnull %0, i1 noundef zeroext false)
  %.not18 = icmp eq i32 %37, 0
  br i1 %.not18, label %49, label %38

38:                                               ; preds = %36
  %39 = load i32, ptr %0, align 8
  %40 = and i32 %39, 3
  %41 = icmp eq i32 %40, 3
  %.idx19 = select i1 %41, i64 0, i64 64
  %42 = getelementptr inbounds nuw i8, ptr %0, i64 %.idx19
  %43 = getelementptr inbounds nuw i8, ptr %42, i64 56
  %44 = load ptr, ptr %43, align 8, !tbaa !65
  %45 = tail call ptr @agraphof(ptr noundef %44) #17
  %46 = load ptr, ptr %7, align 8, !tbaa !9
  %47 = getelementptr inbounds nuw i8, ptr %46, i64 136
  %48 = load ptr, ptr %47, align 8, !tbaa !162
  tail call void @updateBB(ptr noundef %45, ptr noundef %48) #17
  br label %49

49:                                               ; preds = %36, %38, %1, %32, %28
  ret void
}